target datalayout = "e-m:e-p270:32:32-p271:32:32-p272:64:64-i64:64-i128:128-f80:128-n8:16:32:64-S128"
target triple = "x86_64-pc-linux-gnu"

%struct._object = type { %union.anon, ptr }
%union.anon = type { i64 }
%struct.PyVarObject = type { %struct._object, i64 }
%struct.PyListObject = type { %struct.PyVarObject, ptr, i64 }
%struct.anon = type { i32, i32 }

@PyExc_IndexError = external global ptr, align 8
@.str.12 = private unnamed_addr constant [19 x i8] c"index out of range\00", align 1
@PyExc_RuntimeError = external global ptr, align 8
@.str.13 = private unnamed_addr constant [35 x i8] c"list changed size during iteration\00", align 1

; Function Attrs: inlinehint nounwind uwtable
define internal ptr @_Py_NewRef(ptr noundef %0) #3 {
  %2 = alloca ptr, align 8
  store ptr %0, ptr %2, align 8, !tbaa !3
  %3 = load ptr, ptr %2, align 8, !tbaa !3
  call void @Py_INCREF(ptr noundef %3)
  %4 = load ptr, ptr %2, align 8, !tbaa !3
  ret ptr %4
}

; Function Attrs: alwaysinline nounwind uwtable
define internal i32 @_Py_IsImmortal(ptr noundef %0) #4 {
  %2 = alloca ptr, align 8
  store ptr %0, ptr %2, align 8, !tbaa !3
  %3 = load ptr, ptr %2, align 8, !tbaa !3
  %4 = getelementptr inbounds nuw %struct._object, ptr %3, i32 0, i32 0
  %5 = getelementptr inbounds nuw %struct.anon, ptr %4, i32 0, i32 0
  %6 = load i32, ptr %5, align 8, !tbaa !31
  %7 = icmp slt i32 %6, 0
  %8 = zext i1 %7 to i32
  ret i32 %8
}

; Function Attrs: inlinehint nounwind uwtable
define internal i64 @Py_SIZE(ptr noundef %0) #3 {
  %2 = alloca ptr, align 8
  store ptr %0, ptr %2, align 8, !tbaa !3
  %3 = load ptr, ptr %2, align 8, !tbaa !3
  %4 = getelementptr inbounds nuw %struct.PyVarObject, ptr %3, i32 0, i32 1
  %5 = load i64, ptr %4, align 8, !tbaa !32
  ret i64 %5
}

; Function Attrs: nounwind uwtable
define internal i32 @siftdown_max(ptr noundef %0, i64 noundef %1, i64 noundef %2) #0 {
  %4 = alloca i32, align 4
  %5 = alloca ptr, align 8
  %6 = alloca i64, align 8
  %7 = alloca i64, align 8
  %8 = alloca ptr, align 8
  %9 = alloca ptr, align 8
  %10 = alloca ptr, align 8
  %11 = alloca i64, align 8
  %12 = alloca i64, align 8
  %13 = alloca i32, align 4
  %14 = alloca i32, align 4
  store ptr %0, ptr %5, align 8, !tbaa !25
  store i64 %1, ptr %6, align 8, !tbaa !10
  store i64 %2, ptr %7, align 8, !tbaa !10
  call void @llvm.lifetime.start.p0(i64 8, ptr %8) #5
  call void @llvm.lifetime.start.p0(i64 8, ptr %9) #5
  call void @llvm.lifetime.start.p0(i64 8, ptr %10) #5
  call void @llvm.lifetime.start.p0(i64 8, ptr %11) #5
  call void @llvm.lifetime.start.p0(i64 8, ptr %12) #5
  call void @llvm.lifetime.start.p0(i64 4, ptr %13) #5
  %15 = load ptr, ptr %5, align 8, !tbaa !25
  %16 = call i64 @PyList_GET_SIZE(ptr noundef %15)
  store i64 %16, ptr %12, align 8, !tbaa !10
  %17 = load i64, ptr %7, align 8, !tbaa !10
  %18 = load i64, ptr %12, align 8, !tbaa !10
  %19 = icmp sge i64 %17, %18
  br i1 %19, label %20, label %22

20:                                               ; preds = %3
  %21 = load ptr, ptr @PyExc_IndexError, align 8, !tbaa !3
  call void @PyErr_SetString(ptr noundef %21, ptr noundef @.str.12)
  store i32 -1, ptr %4, align 4
  store i32 1, ptr %14, align 4
  br label %85

22:                                               ; preds = %3
  %23 = load ptr, ptr %5, align 8, !tbaa !25
  %24 = getelementptr inbounds nuw %struct.PyListObject, ptr %23, i32 0, i32 1
  %25 = load ptr, ptr %24, align 8, !tbaa !26
  store ptr %25, ptr %10, align 8, !tbaa !8
  %26 = load ptr, ptr %10, align 8, !tbaa !8
  %27 = load i64, ptr %7, align 8, !tbaa !10
  %28 = getelementptr ptr, ptr %26, i64 %27
  %29 = load ptr, ptr %28, align 8, !tbaa !3
  store ptr %29, ptr %8, align 8, !tbaa !3
  br label %30

30:                                               ; preds = %63, %22
  %31 = load i64, ptr %7, align 8, !tbaa !10
  %32 = load i64, ptr %6, align 8, !tbaa !10
  %33 = icmp sgt i64 %31, %32
  br i1 %33, label %34, label %84

34:                                               ; preds = %30
  %35 = load i64, ptr %7, align 8, !tbaa !10
  %36 = sub i64 %35, 1
  %37 = ashr i64 %36, 1
  store i64 %37, ptr %11, align 8, !tbaa !10
  %38 = load ptr, ptr %10, align 8, !tbaa !8
  %39 = load i64, ptr %11, align 8, !tbaa !10
  %40 = getelementptr ptr, ptr %38, i64 %39
  %41 = load ptr, ptr %40, align 8, !tbaa !3
  %42 = call ptr @_Py_NewRef(ptr noundef %41)
  store ptr %42, ptr %9, align 8, !tbaa !3
  %43 = load ptr, ptr %8, align 8, !tbaa !3
  call void @Py_INCREF(ptr noundef %43)
  %44 = load ptr, ptr %9, align 8, !tbaa !3
  %45 = load ptr, ptr %8, align 8, !tbaa !3
  %46 = call i32 @PyObject_RichCompareBool(ptr noundef %44, ptr noundef %45, i32 noundef 0)
  store i32 %46, ptr %13, align 4, !tbaa !28
  %47 = load ptr, ptr %9, align 8, !tbaa !3
  call void @Py_DECREF(ptr noundef %47)
  %48 = load ptr, ptr %8, align 8, !tbaa !3
  call void @Py_DECREF(ptr noundef %48)
  %49 = load i32, ptr %13, align 4, !tbaa !28
  %50 = icmp slt i32 %49, 0
  br i1 %50, label %51, label %52

51:                                               ; preds = %34
  store i32 -1, ptr %4, align 4
  store i32 1, ptr %14, align 4
  br label %85

52:                                               ; preds = %34
  %53 = load i64, ptr %12, align 8, !tbaa !10
  %54 = load ptr, ptr %5, align 8, !tbaa !25
  %55 = call i64 @PyList_GET_SIZE(ptr noundef %54)
  %56 = icmp ne i64 %53, %55
  br i1 %56, label %57, label %59

57:                                               ; preds = %52
  %58 = load ptr, ptr @PyExc_RuntimeError, align 8, !tbaa !3
  call void @PyErr_SetString(ptr noundef %58, ptr noundef @.str.13)
  store i32 -1, ptr %4, align 4
  store i32 1, ptr %14, align 4
  br label %85

59:                                               ; preds = %52
  %60 = load i32, ptr %13, align 4, !tbaa !28
  %61 = icmp eq i32 %60, 0
  br i1 %61, label %62, label %63

62:                                               ; preds = %59
  br label %84

63:                                               ; preds = %59
  %64 = load ptr, ptr %5, align 8, !tbaa !25
  %65 = getelementptr inbounds nuw %struct.PyListObject, ptr %64, i32 0, i32 1
  %66 = load ptr, ptr %65, align 8, !tbaa !26
  store ptr %66, ptr %10, align 8, !tbaa !8
  %67 = load ptr, ptr %10, align 8, !tbaa !8
  %68 = load i64, ptr %11, align 8, !tbaa !10
  %69 = getelementptr ptr, ptr %67, i64 %68
  %70 = load ptr, ptr %69, align 8, !tbaa !3
  store ptr %70, ptr %9, align 8, !tbaa !3
  %71 = load ptr, ptr %10, align 8, !tbaa !8
  %72 = load i64, ptr %7, align 8, !tbaa !10
  %73 = getelementptr ptr, ptr %71, i64 %72
  %74 = load ptr, ptr %73, align 8, !tbaa !3
  store ptr %74, ptr %8, align 8, !tbaa !3
  %75 = load ptr, ptr %8, align 8, !tbaa !3
  %76 = load ptr, ptr %10, align 8, !tbaa !8
  %77 = load i64, ptr %11, align 8, !tbaa !10
  %78 = getelementptr ptr, ptr %76, i64 %77
  store ptr %75, ptr %78, align 8, !tbaa !3
  %79 = load ptr, ptr %9, align 8, !tbaa !3
  %80 = load ptr, ptr %10, align 8, !tbaa !8
  %81 = load i64, ptr %7, align 8, !tbaa !10
  %82 = getelementptr ptr, ptr %80, i64 %81
  store ptr %79, ptr %82, align 8, !tbaa !3
  %83 = load i64, ptr %11, align 8, !tbaa !10
  store i64 %83, ptr %7, align 8, !tbaa !10
  br label %30, !llvm.loop !39

84:                                               ; preds = %62, %30
  store i32 0, ptr %4, align 4
  store i32 1, ptr %14, align 4
  br label %85

85:                                               ; preds = %84, %57, %51, %20
  call void @llvm.lifetime.end.p0(i64 4, ptr %13) #5
  call void @llvm.lifetime.end.p0(i64 8, ptr %12) #5
  call void @llvm.lifetime.end.p0(i64 8, ptr %11) #5
  call void @llvm.lifetime.end.p0(i64 8, ptr %10) #5
  call void @llvm.lifetime.end.p0(i64 8, ptr %9) #5
  call void @llvm.lifetime.end.p0(i64 8, ptr %8) #5
  %86 = load i32, ptr %4, align 4
  ret i32 %86
}

; Function Attrs: alwaysinline nounwind uwtable
define internal void @Py_DECREF(ptr noundef %0) #4 {
  %2 = alloca ptr, align 8
  store ptr %0, ptr %2, align 8, !tbaa !3
  %3 = load ptr, ptr %2, align 8, !tbaa !3
  %4 = call i32 @_Py_IsImmortal(ptr noundef %3)
  %5 = icmp ne i32 %4, 0
  br i1 %5, label %6, label %7

6:                                                ; preds = %1
  br label %16

7:                                                ; preds = %1
  %8 = load ptr, ptr %2, align 8, !tbaa !3
  %9 = getelementptr inbounds nuw %struct._object, ptr %8, i32 0, i32 0
  %10 = getelementptr inbounds nuw %struct.anon, ptr %9, i32 0, i32 0
  %11 = load i32, ptr %10, align 8, !tbaa !31
  %12 = add i32 %11, -1
  store i32 %12, ptr %10, align 8, !tbaa !31
  %13 = icmp eq i32 %12, 0
  br i1 %13, label %14, label %16

14:                                               ; preds = %7
  %15 = load ptr, ptr %2, align 8, !tbaa !3
  call void @_Py_Dealloc(ptr noundef %15)
  br label %16

16:                                               ; preds = %6, %14, %7
  ret void
}

; Function Attrs: alwaysinline nounwind uwtable
define internal void @Py_INCREF(ptr noundef %0) #4 {
  %2 = alloca ptr, align 8
  %3 = alloca i32, align 4
  %4 = alloca i32, align 4
  store ptr %0, ptr %2, align 8, !tbaa !3
  call void @llvm.lifetime.start.p0(i64 4, ptr %3) #5
  %5 = load ptr, ptr %2, align 8, !tbaa !3
  %6 = getelementptr inbounds nuw %struct._object, ptr %5, i32 0, i32 0
  %7 = getelementptr inbounds nuw %struct.anon, ptr %6, i32 0, i32 0
  %8 = load i32, ptr %7, align 8, !tbaa !31
  store i32 %8, ptr %3, align 4, !tbaa !28
  %9 = load i32, ptr %3, align 4, !tbaa !28
  %10 = icmp slt i32 %9, 0
  br i1 %10, label %11, label %12

11:                                               ; preds = %1
  store i32 1, ptr %4, align 4
  br label %18

12:                                               ; preds = %1
  %13 = load i32, ptr %3, align 4, !tbaa !28
  %14 = add i32 %13, 1
  %15 = load ptr, ptr %2, align 8, !tbaa !3
  %16 = getelementptr inbounds nuw %struct._object, ptr %15, i32 0, i32 0
  %17 = getelementptr inbounds nuw %struct.anon, ptr %16, i32 0, i32 0
  store i32 %14, ptr %17, align 8, !tbaa !31
  store i32 0, ptr %4, align 4
  br label %18

18:                                               ; preds = %12, %11
  call void @llvm.lifetime.end.p0(i64 4, ptr %3) #5
  %19 = load i32, ptr %4, align 4
  switch i32 %19, label %21 [
    i32 0, label %20
    i32 1, label %20
  ]

20:                                               ; preds = %18, %18
  ret void

21:                                               ; preds = %18
  unreachable
}

; Function Attrs: inlinehint nounwind uwtable
define internal i64 @PyList_GET_SIZE(ptr noundef %0) #3 {
  %2 = alloca ptr, align 8
  %3 = alloca ptr, align 8
  store ptr %0, ptr %2, align 8, !tbaa !3
  call void @llvm.lifetime.start.p0(i64 8, ptr %3) #5
  %4 = load ptr, ptr %2, align 8, !tbaa !3
  store ptr %4, ptr %3, align 8, !tbaa !25
  %5 = load ptr, ptr %3, align 8, !tbaa !25
  %6 = call i64 @Py_SIZE(ptr noundef %5)
  call void @llvm.lifetime.end.p0(i64 8, ptr %3) #5
  ret i64 %6
}

; Function Attrs: nounwind uwtable
define internal i32 @siftup_max(ptr noundef %0, i64 noundef %1) #0 {
  %3 = alloca i32, align 4
  %4 = alloca ptr, align 8
  %5 = alloca i64, align 8
  %6 = alloca i64, align 8
  %7 = alloca i64, align 8
  %8 = alloca i64, align 8
  %9 = alloca i64, align 8
  %10 = alloca ptr, align 8
  %11 = alloca ptr, align 8
  %12 = alloca ptr, align 8
  %13 = alloca i32, align 4
  %14 = alloca i32, align 4
  %15 = alloca ptr, align 8
  %16 = alloca ptr, align 8
  store ptr %0, ptr %4, align 8, !tbaa !25
  store i64 %1, ptr %5, align 8, !tbaa !10
  call void @llvm.lifetime.start.p0(i64 8, ptr %6) #5
  call void @llvm.lifetime.start.p0(i64 8, ptr %7) #5
  call void @llvm.lifetime.start.p0(i64 8, ptr %8) #5
  call void @llvm.lifetime.start.p0(i64 8, ptr %9) #5
  call void @llvm.lifetime.start.p0(i64 8, ptr %10) #5
  call void @llvm.lifetime.start.p0(i64 8, ptr %11) #5
  call void @llvm.lifetime.start.p0(i64 8, ptr %12) #5
  call void @llvm.lifetime.start.p0(i64 4, ptr %13) #5
  %17 = load ptr, ptr %4, align 8, !tbaa !25
  %18 = call i64 @PyList_GET_SIZE(ptr noundef %17)
  store i64 %18, ptr %7, align 8, !tbaa !10
  %19 = load i64, ptr %5, align 8, !tbaa !10
  store i64 %19, ptr %6, align 8, !tbaa !10
  %20 = load i64, ptr %5, align 8, !tbaa !10
  %21 = load i64, ptr %7, align 8, !tbaa !10
  %22 = icmp sge i64 %20, %21
  br i1 %22, label %23, label %25

23:                                               ; preds = %2
  %24 = load ptr, ptr @PyExc_IndexError, align 8, !tbaa !3
  call void @PyErr_SetString(ptr noundef %24, ptr noundef @.str.12)
  store i32 -1, ptr %3, align 4
  store i32 1, ptr %14, align 4
  br label %105

25:                                               ; preds = %2
  %26 = load ptr, ptr %4, align 8, !tbaa !25
  %27 = getelementptr inbounds nuw %struct.PyListObject, ptr %26, i32 0, i32 1
  %28 = load ptr, ptr %27, align 8, !tbaa !26
  store ptr %28, ptr %12, align 8, !tbaa !8
  %29 = load i64, ptr %7, align 8, !tbaa !10
  %30 = ashr i64 %29, 1
  store i64 %30, ptr %9, align 8, !tbaa !10
  br label %31

31:                                               ; preds = %82, %25
  %32 = load i64, ptr %5, align 8, !tbaa !10
  %33 = load i64, ptr %9, align 8, !tbaa !10
  %34 = icmp slt i64 %32, %33
  br i1 %34, label %35, label %100

35:                                               ; preds = %31
  %36 = load i64, ptr %5, align 8, !tbaa !10
  %37 = mul i64 2, %36
  %38 = add i64 %37, 1
  store i64 %38, ptr %8, align 8, !tbaa !10
  %39 = load i64, ptr %8, align 8, !tbaa !10
  %40 = add i64 %39, 1
  %41 = load i64, ptr %7, align 8, !tbaa !10
  %42 = icmp slt i64 %40, %41
  br i1 %42, label %43, label %82

43:                                               ; preds = %35
  call void @llvm.lifetime.start.p0(i64 8, ptr %15) #5
  %44 = load ptr, ptr %12, align 8, !tbaa !8
  %45 = load i64, ptr %8, align 8, !tbaa !10
  %46 = add i64 %45, 1
  %47 = getelementptr ptr, ptr %44, i64 %46
  %48 = load ptr, ptr %47, align 8, !tbaa !3
  store ptr %48, ptr %15, align 8, !tbaa !3
  call void @llvm.lifetime.start.p0(i64 8, ptr %16) #5
  %49 = load ptr, ptr %12, align 8, !tbaa !8
  %50 = load i64, ptr %8, align 8, !tbaa !10
  %51 = getelementptr ptr, ptr %49, i64 %50
  %52 = load ptr, ptr %51, align 8, !tbaa !3
  store ptr %52, ptr %16, align 8, !tbaa !3
  %53 = load ptr, ptr %15, align 8, !tbaa !3
  call void @Py_INCREF(ptr noundef %53)
  %54 = load ptr, ptr %16, align 8, !tbaa !3
  call void @Py_INCREF(ptr noundef %54)
  %55 = load ptr, ptr %15, align 8, !tbaa !3
  %56 = load ptr, ptr %16, align 8, !tbaa !3
  %57 = call i32 @PyObject_RichCompareBool(ptr noundef %55, ptr noundef %56, i32 noundef 0)
  store i32 %57, ptr %13, align 4, !tbaa !28
  %58 = load ptr, ptr %15, align 8, !tbaa !3
  call void @Py_DECREF(ptr noundef %58)
  %59 = load ptr, ptr %16, align 8, !tbaa !3
  call void @Py_DECREF(ptr noundef %59)
  %60 = load i32, ptr %13, align 4, !tbaa !28
  %61 = icmp slt i32 %60, 0
  br i1 %61, label %62, label %63

62:                                               ; preds = %43
  store i32 -1, ptr %3, align 4
  store i32 1, ptr %14, align 4
  br label %79

63:                                               ; preds = %43
  %64 = load i32, ptr %13, align 4, !tbaa !28
  %65 = xor i32 %64, 1
  %66 = zext i32 %65 to i64
  %67 = load i64, ptr %8, align 8, !tbaa !10
  %68 = add i64 %67, %66
  store i64 %68, ptr %8, align 8, !tbaa !10
  %69 = load ptr, ptr %4, align 8, !tbaa !25
  %70 = getelementptr inbounds nuw %struct.PyListObject, ptr %69, i32 0, i32 1
  %71 = load ptr, ptr %70, align 8, !tbaa !26
  store ptr %71, ptr %12, align 8, !tbaa !8
  %72 = load i64, ptr %7, align 8, !tbaa !10
  %73 = load ptr, ptr %4, align 8, !tbaa !25
  %74 = call i64 @PyList_GET_SIZE(ptr noundef %73)
  %75 = icmp ne i64 %72, %74
  br i1 %75, label %76, label %78

76:                                               ; preds = %63
  %77 = load ptr, ptr @PyExc_RuntimeError, align 8, !tbaa !3
  call void @PyErr_SetString(ptr noundef %77, ptr noundef @.str.13)
  store i32 -1, ptr %3, align 4
  store i32 1, ptr %14, align 4
  br label %79

78:                                               ; preds = %63
  store i32 0, ptr %14, align 4
  br label %79

79:                                               ; preds = %78, %76, %62
  call void @llvm.lifetime.end.p0(i64 8, ptr %16) #5
  call void @llvm.lifetime.end.p0(i64 8, ptr %15) #5
  %80 = load i32, ptr %14, align 4
  switch i32 %80, label %105 [
    i32 0, label %81
  ]

81:                                               ; preds = %79
  br label %82

82:                                               ; preds = %81, %35
  %83 = load ptr, ptr %12, align 8, !tbaa !8
  %84 = load i64, ptr %8, align 8, !tbaa !10
  %85 = getelementptr ptr, ptr %83, i64 %84
  %86 = load ptr, ptr %85, align 8, !tbaa !3
  store ptr %86, ptr %10, align 8, !tbaa !3
  %87 = load ptr, ptr %12, align 8, !tbaa !8
  %88 = load i64, ptr %5, align 8, !tbaa !10
  %89 = getelementptr ptr, ptr %87, i64 %88
  %90 = load ptr, ptr %89, align 8, !tbaa !3
  store ptr %90, ptr %11, align 8, !tbaa !3
  %91 = load ptr, ptr %11, align 8, !tbaa !3
  %92 = load ptr, ptr %12, align 8, !tbaa !8
  %93 = load i64, ptr %8, align 8, !tbaa !10
  %94 = getelementptr ptr, ptr %92, i64 %93
  store ptr %91, ptr %94, align 8, !tbaa !3
  %95 = load ptr, ptr %10, align 8, !tbaa !3
  %96 = load ptr, ptr %12, align 8, !tbaa !8
  %97 = load i64, ptr %5, align 8, !tbaa !10
  %98 = getelementptr ptr, ptr %96, i64 %97
  store ptr %95, ptr %98, align 8, !tbaa !3
  %99 = load i64, ptr %8, align 8, !tbaa !10
  store i64 %99, ptr %5, align 8, !tbaa !10
  br label %31, !llvm.loop !38

100:                                              ; preds = %31
  %101 = load ptr, ptr %4, align 8, !tbaa !25
  %102 = load i64, ptr %6, align 8, !tbaa !10
  %103 = load i64, ptr %5, align 8, !tbaa !10
  %104 = call i32 @siftdown_max(ptr noundef %101, i64 noundef %102, i64 noundef %103)
  store i32 %104, ptr %3, align 4
  store i32 1, ptr %14, align 4
  br label %105

105:                                              ; preds = %100, %79, %23
  call void @llvm.lifetime.end.p0(i64 4, ptr %13) #5
  call void @llvm.lifetime.end.p0(i64 8, ptr %12) #5
  call void @llvm.lifetime.end.p0(i64 8, ptr %11) #5
  call void @llvm.lifetime.end.p0(i64 8, ptr %10) #5
  call void @llvm.lifetime.end.p0(i64 8, ptr %9) #5
  call void @llvm.lifetime.end.p0(i64 8, ptr %8) #5
  call void @llvm.lifetime.end.p0(i64 8, ptr %7) #5
  call void @llvm.lifetime.end.p0(i64 8, ptr %6) #5
  %106 = load i32, ptr %3, align 4
  ret i32 %106
}