; Function Attrs: nounwind uwtable
define internal range(i32 -1, 1) i32 @siftup_max(ptr noundef readonly captures(none) %0, i64 noundef %1) #0 {
  %3 = getelementptr i8, ptr %0, i64 16
  %.val58 = load i64, ptr %3, align 8, !tbaa !21
  %.not = icmp slt i64 %1, %.val58
  br i1 %.not, label %4, label %siftdown_max.exit.sink.split

4:                                                ; preds = %2
  %5 = getelementptr inbounds nuw i8, ptr %0, i64 24
  %6 = load ptr, ptr %5, align 8, !tbaa !23
  %7 = ashr i64 %.val58, 1
  %8 = icmp slt i64 %1, %7
  br i1 %8, label %.lr.ph, label %._crit_edge

.lr.ph:                                           ; preds = %4, %43
  %.04267 = phi i64 [ %.044, %43 ], [ %1, %4 ]
  %.04666 = phi ptr [ %.147, %43 ], [ %6, %4 ]
  %9 = shl i64 %.04267, 1
  %10 = or disjoint i64 %9, 1
  %11 = add i64 %9, 2
  %12 = icmp slt i64 %11, %.val58
  br i1 %12, label %13, label %43

13:                                               ; preds = %.lr.ph
  %14 = getelementptr ptr, ptr %.04666, i64 %11
  %15 = load ptr, ptr %14, align 8, !tbaa !3
  %16 = getelementptr ptr, ptr %.04666, i64 %10
  %17 = load ptr, ptr %16, align 8, !tbaa !3
  %18 = load i32, ptr %15, align 8, !tbaa !22
  %19 = icmp slt i32 %18, 0
  br i1 %19, label %Py_INCREF.exit54, label %20

20:                                               ; preds = %13
  %21 = add nuw i32 %18, 1
  store i32 %21, ptr %15, align 8, !tbaa !22
  br label %Py_INCREF.exit54

Py_INCREF.exit54:                                 ; preds = %13, %20
  %22 = load i32, ptr %17, align 8, !tbaa !22
  %23 = icmp slt i32 %22, 0
  br i1 %23, label %Py_INCREF.exit, label %24

24:                                               ; preds = %Py_INCREF.exit54
  %25 = add nuw i32 %22, 1
  store i32 %25, ptr %17, align 8, !tbaa !22
  br label %Py_INCREF.exit

Py_INCREF.exit:                                   ; preds = %Py_INCREF.exit54, %24
  %26 = tail call i32 @PyObject_RichCompareBool(ptr noundef nonnull %15, ptr noundef nonnull %17, i32 noundef 0) #2
  %27 = load i32, ptr %15, align 8, !tbaa !22
  %.not.i55 = icmp sgt i32 %27, -1
  br i1 %.not.i55, label %28, label %Py_DECREF.exit56

28:                                               ; preds = %Py_INCREF.exit
  %29 = add nsw i32 %27, -1
  store i32 %29, ptr %15, align 8, !tbaa !22
  %30 = icmp eq i32 %29, 0
  br i1 %30, label %31, label %Py_DECREF.exit56

31:                                               ; preds = %28
  tail call void @_Py_Dealloc(ptr noundef nonnull %15) #2
  br label %Py_DECREF.exit56

Py_DECREF.exit56:                                 ; preds = %Py_INCREF.exit, %28, %31
  %32 = load i32, ptr %17, align 8, !tbaa !22
  %.not.i = icmp sgt i32 %32, -1
  br i1 %.not.i, label %33, label %Py_DECREF.exit

33:                                               ; preds = %Py_DECREF.exit56
  %34 = add nsw i32 %32, -1
  store i32 %34, ptr %17, align 8, !tbaa !22
  %35 = icmp eq i32 %34, 0
  br i1 %35, label %36, label %Py_DECREF.exit

36:                                               ; preds = %33
  tail call void @_Py_Dealloc(ptr noundef nonnull %17) #2
  br label %Py_DECREF.exit

Py_DECREF.exit:                                   ; preds = %Py_DECREF.exit56, %33, %36
  %37 = icmp slt i32 %26, 0
  br i1 %37, label %siftdown_max.exit, label %38

38:                                               ; preds = %Py_DECREF.exit
  %39 = xor i32 %26, 1
  %40 = zext nneg i32 %39 to i64
  %41 = add i64 %10, %40
  %42 = load ptr, ptr %5, align 8, !tbaa !23
  %.val = load i64, ptr %3, align 8, !tbaa !21
  %.not53 = icmp eq i64 %.val58, %.val
  br i1 %.not53, label %43, label %siftdown_max.exit.sink.split

43:                                               ; preds = %38, %.lr.ph
  %.147 = phi ptr [ %.04666, %.lr.ph ], [ %42, %38 ]
  %.044 = phi i64 [ %10, %.lr.ph ], [ %41, %38 ]
  %44 = getelementptr ptr, ptr %.147, i64 %.044
  %45 = load ptr, ptr %44, align 8, !tbaa !3
  %46 = getelementptr ptr, ptr %.147, i64 %.04267
  %47 = load ptr, ptr %46, align 8, !tbaa !3
  store ptr %47, ptr %44, align 8, !tbaa !3
  store ptr %45, ptr %46, align 8, !tbaa !3
  %48 = icmp slt i64 %.044, %7
  br i1 %48, label %.lr.ph, label %._crit_edge, !llvm.loop !34

._crit_edge:                                      ; preds = %43, %4
  %49 = phi ptr [ %6, %4 ], [ %.147, %43 ]
  %.042.lcssa = phi i64 [ %1, %4 ], [ %.044, %43 ]
  %.not.i59 = icmp slt i64 %.042.lcssa, %.val58
  br i1 %.not.i59, label %50, label %siftdown_max.exit.sink.split

50:                                               ; preds = %._crit_edge
  %51 = icmp sgt i64 %.042.lcssa, %1
  br i1 %51, label %.lr.ph.preheader.i, label %siftdown_max.exit

.lr.ph.preheader.i:                               ; preds = %50
  %52 = getelementptr ptr, ptr %49, i64 %.042.lcssa
  %53 = load ptr, ptr %52, align 8, !tbaa !3
  br label %.lr.ph.i

.lr.ph.i:                                         ; preds = %81, %.lr.ph.preheader.i
  %.03245.i = phi i64 [ %55, %81 ], [ %.042.lcssa, %.lr.ph.preheader.i ]
  %.03344.i = phi ptr [ %86, %81 ], [ %53, %.lr.ph.preheader.i ]
  %.03443.i = phi ptr [ %82, %81 ], [ %49, %.lr.ph.preheader.i ]
  %54 = add nsw i64 %.03245.i, -1
  %55 = ashr i64 %54, 1
  %56 = getelementptr ptr, ptr %.03443.i, i64 %55
  %57 = load ptr, ptr %56, align 8, !tbaa !3
  %58 = load i32, ptr %57, align 8, !tbaa !22
  %59 = icmp slt i32 %58, 0
  br i1 %59, label %_Py_NewRef.exit.i, label %60

60:                                               ; preds = %.lr.ph.i
  %61 = add nuw i32 %58, 1
  store i32 %61, ptr %57, align 8, !tbaa !22
  br label %_Py_NewRef.exit.i

_Py_NewRef.exit.i:                                ; preds = %60, %.lr.ph.i
  %62 = load i32, ptr %.03344.i, align 8, !tbaa !22
  %63 = icmp slt i32 %62, 0
  br i1 %63, label %Py_INCREF.exit.i, label %64

64:                                               ; preds = %_Py_NewRef.exit.i
  %65 = add nuw i32 %62, 1
  store i32 %65, ptr %.03344.i, align 8, !tbaa !22
  br label %Py_INCREF.exit.i

Py_INCREF.exit.i:                                 ; preds = %64, %_Py_NewRef.exit.i
  %66 = tail call i32 @PyObject_RichCompareBool(ptr noundef nonnull %57, ptr noundef nonnull %.03344.i, i32 noundef 0) #2
  %67 = load i32, ptr %57, align 8, !tbaa !22
  %.not.i39.i = icmp sgt i32 %67, -1
  br i1 %.not.i39.i, label %68, label %Py_DECREF.exit40.i

68:                                               ; preds = %Py_INCREF.exit.i
  %69 = add nsw i32 %67, -1
  store i32 %69, ptr %57, align 8, !tbaa !22
  %70 = icmp eq i32 %69, 0
  br i1 %70, label %71, label %Py_DECREF.exit40.i

71:                                               ; preds = %68
  tail call void @_Py_Dealloc(ptr noundef nonnull %57) #2
  br label %Py_DECREF.exit40.i

Py_DECREF.exit40.i:                               ; preds = %71, %68, %Py_INCREF.exit.i
  %72 = load i32, ptr %.03344.i, align 8, !tbaa !22
  %.not.i.i = icmp sgt i32 %72, -1
  br i1 %.not.i.i, label %73, label %Py_DECREF.exit.i

73:                                               ; preds = %Py_DECREF.exit40.i
  %74 = add nsw i32 %72, -1
  store i32 %74, ptr %.03344.i, align 8, !tbaa !22
  %75 = icmp eq i32 %74, 0
  br i1 %75, label %76, label %Py_DECREF.exit.i

76:                                               ; preds = %73
  tail call void @_Py_Dealloc(ptr noundef nonnull %.03344.i) #2
  br label %Py_DECREF.exit.i

Py_DECREF.exit.i:                                 ; preds = %76, %73, %Py_DECREF.exit40.i
  %77 = icmp slt i32 %66, 0
  br i1 %77, label %siftdown_max.exit, label %78

78:                                               ; preds = %Py_DECREF.exit.i
  %.val.i = load i64, ptr %3, align 8, !tbaa !21
  %.not38.i = icmp eq i64 %.val58, %.val.i
  br i1 %.not38.i, label %79, label %siftdown_max.exit.sink.split

79:                                               ; preds = %78
  %80 = icmp eq i32 %66, 0
  br i1 %80, label %siftdown_max.exit, label %81

81:                                               ; preds = %79
  %82 = load ptr, ptr %5, align 8, !tbaa !23
  %83 = getelementptr ptr, ptr %82, i64 %55
  %84 = load ptr, ptr %83, align 8, !tbaa !3
  %85 = getelementptr ptr, ptr %82, i64 %.03245.i
  %86 = load ptr, ptr %85, align 8, !tbaa !3
  store ptr %86, ptr %83, align 8, !tbaa !3
  store ptr %84, ptr %85, align 8, !tbaa !3
  %87 = icmp sgt i64 %55, %1
  br i1 %87, label %.lr.ph.i, label %siftdown_max.exit, !llvm.loop !35

siftdown_max.exit.sink.split:                     ; preds = %38, %78, %._crit_edge, %2
  %PyExc_RuntimeError.sink = phi ptr [ @PyExc_IndexError, %2 ], [ @PyExc_IndexError, %._crit_edge ], [ @PyExc_RuntimeError, %78 ], [ @PyExc_RuntimeError, %38 ]
  %.str.13.sink = phi ptr [ @.str.12, %2 ], [ @.str.12, %._crit_edge ], [ @.str.13, %78 ], [ @.str.13, %38 ]
  %88 = load ptr, ptr %PyExc_RuntimeError.sink, align 8, !tbaa !3
  tail call void @PyErr_SetString(ptr noundef %88, ptr noundef nonnull %.str.13.sink) #2
  br label %siftdown_max.exit

siftdown_max.exit:                                ; preds = %Py_DECREF.exit, %81, %79, %Py_DECREF.exit.i, %siftdown_max.exit.sink.split, %50
  %.0 = phi i32 [ 0, %50 ], [ -1, %siftdown_max.exit.sink.split ], [ 0, %81 ], [ 0, %79 ], [ -1, %Py_DECREF.exit.i ], [ -1, %Py_DECREF.exit ]
  ret i32 %.0
}